
Voyager_swiatla.elf:     file format elf32-avr

Sections:
Idx Name          Size      VMA       LMA       File off  Algn
  0 .text         000000ce  00000000  00000000  00000054  2**1
                  CONTENTS, ALLOC, LOAD, READONLY, CODE

Disassembly of section .text:

00000000 <__vectors>:
   0:	0e c0       	rjmp	.+28     	; 0x1e <__ctors_end>
   2:	15 c0       	rjmp	.+42     	; 0x2e <__bad_interrupt>
   4:	14 c0       	rjmp	.+40     	; 0x2e <__bad_interrupt>
   6:	13 c0       	rjmp	.+38     	; 0x2e <__bad_interrupt>
   8:	12 c0       	rjmp	.+36     	; 0x2e <__bad_interrupt>
   a:	11 c0       	rjmp	.+34     	; 0x2e <__bad_interrupt>
   c:	10 c0       	rjmp	.+32     	; 0x2e <__bad_interrupt>
   e:	0f c0       	rjmp	.+30     	; 0x2e <__bad_interrupt>
  10:	0e c0       	rjmp	.+28     	; 0x2e <__bad_interrupt>
  12:	0d c0       	rjmp	.+26     	; 0x2e <__bad_interrupt>
  14:	0c c0       	rjmp	.+24     	; 0x2e <__bad_interrupt>
  16:	0b c0       	rjmp	.+22     	; 0x2e <__bad_interrupt>
  18:	0a c0       	rjmp	.+20     	; 0x2e <__bad_interrupt>
  1a:	09 c0       	rjmp	.+18     	; 0x2e <__bad_interrupt>
  1c:	08 c0       	rjmp	.+16     	; 0x2e <__bad_interrupt>

0000001e <__ctors_end>:
  1e:	11 24       	eor	r1, r1
  20:	1f be       	out	0x3f, r1	; 63
  22:	cf e5       	ldi	r28, 0x5F	; 95
  24:	d1 e0       	ldi	r29, 0x01	; 1
  26:	de bf       	out	0x3e, r29	; 62
  28:	cd bf       	out	0x3d, r28	; 61
  2a:	13 d0       	rcall	.+38     	; 0x52 <main>
  2c:	4e c0       	rjmp	.+156    	; 0xca <_exit>

0000002e <__bad_interrupt>:
  2e:	e8 cf       	rjmp	.-48     	; 0x0 <__vectors>

00000030 <klawisz_on>:
  30:	28 2f       	mov	r18, r24
  32:	86 b3       	in	r24, 0x16	; 22
  34:	82 23       	and	r24, r18
  36:	11 f0       	breq	.+4      	; 0x3c <__CCP__+0x8>
  38:	90 e0       	ldi	r25, 0x00	; 0
  3a:	09 c0       	rjmp	.+18     	; 0x4e <__SREG__+0xf>
  3c:	88 ea       	ldi	r24, 0xA8	; 168
  3e:	91 e6       	ldi	r25, 0x61	; 97
  40:	01 97       	sbiw	r24, 0x01	; 1
  42:	f1 f7       	brne	.-4      	; 0x40 <__SREG__+0x1>
  44:	86 b3       	in	r24, 0x16	; 22
  46:	90 e0       	ldi	r25, 0x00	; 0
  48:	82 23       	and	r24, r18
  4a:	09 f4       	brne	.+2      	; 0x4e <__SREG__+0xf>
  4c:	91 e0       	ldi	r25, 0x01	; 1
  4e:	89 2f       	mov	r24, r25
  50:	08 95       	ret

00000052 <main>:
  52:	ff 92       	push	r15
  54:	0f 93       	push	r16
  56:	1f 93       	push	r17
  58:	cf 93       	push	r28
  5a:	df 93       	push	r29
  5c:	87 b3       	in	r24, 0x17	; 23
  5e:	87 60       	ori	r24, 0x07	; 7
  60:	87 bb       	out	0x17, r24	; 23
  62:	88 b3       	in	r24, 0x18	; 24
  64:	88 63       	ori	r24, 0x38	; 56
  66:	88 bb       	out	0x18, r24	; 24
  68:	ff 24       	eor	r15, r15
  6a:	f3 94       	inc	r15
  6c:	c9 e1       	ldi	r28, 0x19	; 25
  6e:	d0 e0       	ldi	r29, 0x00	; 0
  70:	02 e0       	ldi	r16, 0x02	; 2
  72:	14 e0       	ldi	r17, 0x04	; 4
  74:	80 e1       	ldi	r24, 0x10	; 16
  76:	dc df       	rcall	.-72     	; 0x30 <klawisz_on>
  78:	88 23       	and	r24, r24
  7a:	51 f0       	breq	.+20     	; 0x90 <main+0x3e>
  7c:	88 b3       	in	r24, 0x18	; 24
  7e:	8f 25       	eor	r24, r15
  80:	88 bb       	out	0x18, r24	; 24
  82:	80 e1       	ldi	r24, 0x10	; 16
  84:	97 e2       	ldi	r25, 0x27	; 39
  86:	fe 01       	movw	r30, r28
  88:	31 97       	sbiw	r30, 0x01	; 1
  8a:	f1 f7       	brne	.-4      	; 0x88 <main+0x36>
  8c:	01 97       	sbiw	r24, 0x01	; 1
  8e:	d9 f7       	brne	.-10     	; 0x86 <main+0x34>
  90:	88 e0       	ldi	r24, 0x08	; 8
  92:	ce df       	rcall	.-100    	; 0x30 <klawisz_on>
  94:	88 23       	and	r24, r24
  96:	51 f0       	breq	.+20     	; 0xac <main+0x5a>
  98:	88 b3       	in	r24, 0x18	; 24
  9a:	80 27       	eor	r24, r16
  9c:	88 bb       	out	0x18, r24	; 24
  9e:	80 e1       	ldi	r24, 0x10	; 16
  a0:	97 e2       	ldi	r25, 0x27	; 39
  a2:	fe 01       	movw	r30, r28
  a4:	31 97       	sbiw	r30, 0x01	; 1
  a6:	f1 f7       	brne	.-4      	; 0xa4 <main+0x52>
  a8:	01 97       	sbiw	r24, 0x01	; 1
  aa:	d9 f7       	brne	.-10     	; 0xa2 <main+0x50>
  ac:	80 e2       	ldi	r24, 0x20	; 32
  ae:	c0 df       	rcall	.-128    	; 0x30 <klawisz_on>
  b0:	88 23       	and	r24, r24
  b2:	01 f3       	breq	.-64     	; 0x74 <main+0x22>
  b4:	88 b3       	in	r24, 0x18	; 24
  b6:	81 27       	eor	r24, r17
  b8:	88 bb       	out	0x18, r24	; 24
  ba:	80 e1       	ldi	r24, 0x10	; 16
  bc:	97 e2       	ldi	r25, 0x27	; 39
  be:	fe 01       	movw	r30, r28
  c0:	31 97       	sbiw	r30, 0x01	; 1
  c2:	f1 f7       	brne	.-4      	; 0xc0 <main+0x6e>
  c4:	01 97       	sbiw	r24, 0x01	; 1
  c6:	d9 f7       	brne	.-10     	; 0xbe <main+0x6c>
  c8:	d5 cf       	rjmp	.-86     	; 0x74 <main+0x22>

000000ca <_exit>:
  ca:	f8 94       	cli

000000cc <__stop_program>:
  cc:	ff cf       	rjmp	.-2      	; 0xcc <__stop_program>
