
Voyager_a8.elf:     file format elf32-avr

Sections:
Idx Name          Size      VMA       LMA       File off  Algn
  0 .text         0000012a  00000000  00000000  00000054  2**1
                  CONTENTS, ALLOC, LOAD, READONLY, CODE

Disassembly of section .text:

00000000 <__vectors>:
   0:	12 c0       	rjmp	.+36     	; 0x26 <__ctors_end>
   2:	19 c0       	rjmp	.+50     	; 0x36 <__bad_interrupt>
   4:	18 c0       	rjmp	.+48     	; 0x36 <__bad_interrupt>
   6:	17 c0       	rjmp	.+46     	; 0x36 <__bad_interrupt>
   8:	16 c0       	rjmp	.+44     	; 0x36 <__bad_interrupt>
   a:	15 c0       	rjmp	.+42     	; 0x36 <__bad_interrupt>
   c:	14 c0       	rjmp	.+40     	; 0x36 <__bad_interrupt>
   e:	13 c0       	rjmp	.+38     	; 0x36 <__bad_interrupt>
  10:	12 c0       	rjmp	.+36     	; 0x36 <__bad_interrupt>
  12:	11 c0       	rjmp	.+34     	; 0x36 <__bad_interrupt>
  14:	10 c0       	rjmp	.+32     	; 0x36 <__bad_interrupt>
  16:	0f c0       	rjmp	.+30     	; 0x36 <__bad_interrupt>
  18:	0e c0       	rjmp	.+28     	; 0x36 <__bad_interrupt>
  1a:	0d c0       	rjmp	.+26     	; 0x36 <__bad_interrupt>
  1c:	0c c0       	rjmp	.+24     	; 0x36 <__bad_interrupt>
  1e:	0b c0       	rjmp	.+22     	; 0x36 <__bad_interrupt>
  20:	0a c0       	rjmp	.+20     	; 0x36 <__bad_interrupt>
  22:	09 c0       	rjmp	.+18     	; 0x36 <__bad_interrupt>
  24:	08 c0       	rjmp	.+16     	; 0x36 <__bad_interrupt>

00000026 <__ctors_end>:
  26:	11 24       	eor	r1, r1
  28:	1f be       	out	0x3f, r1	; 63
  2a:	cf e5       	ldi	r28, 0x5F	; 95
  2c:	d4 e0       	ldi	r29, 0x04	; 4
  2e:	de bf       	out	0x3e, r29	; 62
  30:	cd bf       	out	0x3d, r28	; 61
  32:	18 d0       	rcall	.+48     	; 0x64 <main>
  34:	78 c0       	rjmp	.+240    	; 0x126 <_exit>

00000036 <__bad_interrupt>:
  36:	e4 cf       	rjmp	.-56     	; 0x0 <__vectors>

00000038 <klawisz_on>:
  38:	48 2f       	mov	r20, r24
  3a:	86 b3       	in	r24, 0x16	; 22
  3c:	84 23       	and	r24, r20
  3e:	11 f0       	breq	.+4      	; 0x44 <__SREG__+0x5>
  40:	90 e0       	ldi	r25, 0x00	; 0
  42:	0e c0       	rjmp	.+28     	; 0x60 <__SREG__+0x21>
  44:	88 ee       	ldi	r24, 0xE8	; 232
  46:	93 e0       	ldi	r25, 0x03	; 3
  48:	28 ec       	ldi	r18, 0xC8	; 200
  4a:	30 e0       	ldi	r19, 0x00	; 0
  4c:	f9 01       	movw	r30, r18
  4e:	31 97       	sbiw	r30, 0x01	; 1
  50:	f1 f7       	brne	.-4      	; 0x4e <__SREG__+0xf>
  52:	01 97       	sbiw	r24, 0x01	; 1
  54:	d9 f7       	brne	.-10     	; 0x4c <__SREG__+0xd>
  56:	86 b3       	in	r24, 0x16	; 22
  58:	90 e0       	ldi	r25, 0x00	; 0
  5a:	84 23       	and	r24, r20
  5c:	09 f4       	brne	.+2      	; 0x60 <__SREG__+0x21>
  5e:	91 e0       	ldi	r25, 0x01	; 1
  60:	89 2f       	mov	r24, r25
  62:	08 95       	ret

00000064 <main>:
  64:	ef 92       	push	r14
  66:	ff 92       	push	r15
  68:	0f 93       	push	r16
  6a:	1f 93       	push	r17
  6c:	cf 93       	push	r28
  6e:	df 93       	push	r29
  70:	81 b3       	in	r24, 0x11	; 17
  72:	8f 67       	ori	r24, 0x7F	; 127
  74:	81 bb       	out	0x11, r24	; 17
  76:	88 b3       	in	r24, 0x18	; 24
  78:	8f 63       	ori	r24, 0x3F	; 63
  7a:	88 bb       	out	0x18, r24	; 24
  7c:	98 e0       	ldi	r25, 0x08	; 8
  7e:	e9 2e       	mov	r14, r25
  80:	80 e1       	ldi	r24, 0x10	; 16
  82:	f8 2e       	mov	r15, r24
  84:	00 e2       	ldi	r16, 0x20	; 32
  86:	10 e4       	ldi	r17, 0x40	; 64
  88:	c8 ec       	ldi	r28, 0xC8	; 200
  8a:	d0 e0       	ldi	r29, 0x00	; 0
  8c:	81 e0       	ldi	r24, 0x01	; 1
  8e:	d4 df       	rcall	.-88     	; 0x38 <klawisz_on>
  90:	88 23       	and	r24, r24
  92:	21 f0       	breq	.+8      	; 0x9c <main+0x38>
  94:	82 b3       	in	r24, 0x12	; 18
  96:	91 e0       	ldi	r25, 0x01	; 1
  98:	89 27       	eor	r24, r25
  9a:	82 bb       	out	0x12, r24	; 18
  9c:	84 e0       	ldi	r24, 0x04	; 4
  9e:	cc df       	rcall	.-104    	; 0x38 <klawisz_on>
  a0:	88 23       	and	r24, r24
  a2:	19 f0       	breq	.+6      	; 0xaa <main+0x46>
  a4:	82 b3       	in	r24, 0x12	; 18
  a6:	8e 25       	eor	r24, r14
  a8:	82 bb       	out	0x12, r24	; 18
  aa:	88 e0       	ldi	r24, 0x08	; 8
  ac:	c5 df       	rcall	.-118    	; 0x38 <klawisz_on>
  ae:	88 23       	and	r24, r24
  b0:	19 f0       	breq	.+6      	; 0xb8 <main+0x54>
  b2:	82 b3       	in	r24, 0x12	; 18
  b4:	8f 25       	eor	r24, r15
  b6:	82 bb       	out	0x12, r24	; 18
  b8:	80 e1       	ldi	r24, 0x10	; 16
  ba:	be df       	rcall	.-132    	; 0x38 <klawisz_on>
  bc:	88 23       	and	r24, r24
  be:	19 f0       	breq	.+6      	; 0xc6 <main+0x62>
  c0:	82 b3       	in	r24, 0x12	; 18
  c2:	80 27       	eor	r24, r16
  c4:	82 bb       	out	0x12, r24	; 18
  c6:	80 e2       	ldi	r24, 0x20	; 32
  c8:	b7 df       	rcall	.-146    	; 0x38 <klawisz_on>
  ca:	88 23       	and	r24, r24
  cc:	19 f0       	breq	.+6      	; 0xd4 <main+0x70>
  ce:	82 b3       	in	r24, 0x12	; 18
  d0:	81 27       	eor	r24, r17
  d2:	82 bb       	out	0x12, r24	; 18
  d4:	82 e0       	ldi	r24, 0x02	; 2
  d6:	b0 df       	rcall	.-160    	; 0x38 <klawisz_on>
  d8:	88 23       	and	r24, r24
  da:	c1 f2       	breq	.-80     	; 0x8c <main+0x28>
  dc:	91 9a       	sbi	0x12, 1	; 18
  de:	21 e0       	ldi	r18, 0x01	; 1
  e0:	30 e0       	ldi	r19, 0x00	; 0
  e2:	0a c0       	rjmp	.+20     	; 0xf8 <main+0x94>
  e4:	fe 01       	movw	r30, r28
  e6:	31 97       	sbiw	r30, 0x01	; 1
  e8:	f1 f7       	brne	.-4      	; 0xe6 <main+0x82>
  ea:	01 97       	sbiw	r24, 0x01	; 1
  ec:	d9 f7       	brne	.-10     	; 0xe4 <main+0x80>
  ee:	2f 5f       	subi	r18, 0xFF	; 255
  f0:	3f 4f       	sbci	r19, 0xFF	; 255
  f2:	26 30       	cpi	r18, 0x06	; 6
  f4:	31 05       	cpc	r19, r1
  f6:	19 f0       	breq	.+6      	; 0xfe <main+0x9a>
  f8:	80 e1       	ldi	r24, 0x10	; 16
  fa:	97 e2       	ldi	r25, 0x27	; 39
  fc:	f3 cf       	rjmp	.-26     	; 0xe4 <main+0x80>
  fe:	92 9a       	sbi	0x12, 2	; 18
 100:	21 e0       	ldi	r18, 0x01	; 1
 102:	30 e0       	ldi	r19, 0x00	; 0
 104:	0a c0       	rjmp	.+20     	; 0x11a <main+0xb6>
 106:	fe 01       	movw	r30, r28
 108:	31 97       	sbiw	r30, 0x01	; 1
 10a:	f1 f7       	brne	.-4      	; 0x108 <main+0xa4>
 10c:	01 97       	sbiw	r24, 0x01	; 1
 10e:	d9 f7       	brne	.-10     	; 0x106 <main+0xa2>
 110:	2f 5f       	subi	r18, 0xFF	; 255
 112:	3f 4f       	sbci	r19, 0xFF	; 255
 114:	23 30       	cpi	r18, 0x03	; 3
 116:	31 05       	cpc	r19, r1
 118:	19 f0       	breq	.+6      	; 0x120 <main+0xbc>
 11a:	80 e1       	ldi	r24, 0x10	; 16
 11c:	97 e2       	ldi	r25, 0x27	; 39
 11e:	f3 cf       	rjmp	.-26     	; 0x106 <main+0xa2>
 120:	92 98       	cbi	0x12, 2	; 18
 122:	91 98       	cbi	0x12, 1	; 18
 124:	b3 cf       	rjmp	.-154    	; 0x8c <main+0x28>

00000126 <_exit>:
 126:	f8 94       	cli

00000128 <__stop_program>:
 128:	ff cf       	rjmp	.-2      	; 0x128 <__stop_program>
