
warp.elf:     file format elf32-avr

Sections:
Idx Name          Size      VMA       LMA       File off  Algn
  0 .text         00000098  00000000  00000000  00000054  2**1
                  CONTENTS, ALLOC, LOAD, READONLY, CODE

Disassembly of section .text:

00000000 <__vectors>:
   0:	12 c0       	rjmp	.+36     	; 0x26 <__ctors_end>
   2:	19 c0       	rjmp	.+50     	; 0x36 <__bad_interrupt>
   4:	18 c0       	rjmp	.+48     	; 0x36 <__bad_interrupt>
   6:	17 c0       	rjmp	.+46     	; 0x36 <__bad_interrupt>
   8:	16 c0       	rjmp	.+44     	; 0x36 <__bad_interrupt>
   a:	15 c0       	rjmp	.+42     	; 0x36 <__bad_interrupt>
   c:	14 c0       	rjmp	.+40     	; 0x36 <__bad_interrupt>
   e:	13 c0       	rjmp	.+38     	; 0x36 <__bad_interrupt>
  10:	12 c0       	rjmp	.+36     	; 0x36 <__bad_interrupt>
  12:	11 c0       	rjmp	.+34     	; 0x36 <__bad_interrupt>
  14:	10 c0       	rjmp	.+32     	; 0x36 <__bad_interrupt>
  16:	0f c0       	rjmp	.+30     	; 0x36 <__bad_interrupt>
  18:	0e c0       	rjmp	.+28     	; 0x36 <__bad_interrupt>
  1a:	0d c0       	rjmp	.+26     	; 0x36 <__bad_interrupt>
  1c:	0c c0       	rjmp	.+24     	; 0x36 <__bad_interrupt>
  1e:	0b c0       	rjmp	.+22     	; 0x36 <__bad_interrupt>
  20:	0a c0       	rjmp	.+20     	; 0x36 <__bad_interrupt>
  22:	09 c0       	rjmp	.+18     	; 0x36 <__bad_interrupt>
  24:	08 c0       	rjmp	.+16     	; 0x36 <__bad_interrupt>

00000026 <__ctors_end>:
  26:	11 24       	eor	r1, r1
  28:	1f be       	out	0x3f, r1	; 63
  2a:	cf e5       	ldi	r28, 0x5F	; 95
  2c:	d4 e0       	ldi	r29, 0x04	; 4
  2e:	de bf       	out	0x3e, r29	; 62
  30:	cd bf       	out	0x3d, r28	; 61
  32:	02 d0       	rcall	.+4      	; 0x38 <main>
  34:	2f c0       	rjmp	.+94     	; 0x94 <_exit>

00000036 <__bad_interrupt>:
  36:	e4 cf       	rjmp	.-56     	; 0x0 <__vectors>

00000038 <main>:
  38:	bb 9a       	sbi	0x17, 3	; 23
  3a:	bc 9a       	sbi	0x17, 4	; 23
  3c:	c2 9a       	sbi	0x18, 2	; 24
  3e:	c3 9a       	sbi	0x18, 3	; 24
  40:	80 e1       	ldi	r24, 0x10	; 16
  42:	97 e2       	ldi	r25, 0x27	; 39
  44:	28 ec       	ldi	r18, 0xC8	; 200
  46:	30 e0       	ldi	r19, 0x00	; 0
  48:	f9 01       	movw	r30, r18
  4a:	31 97       	sbiw	r30, 0x01	; 1
  4c:	f1 f7       	brne	.-4      	; 0x4a <__SREG__+0xb>
  4e:	01 97       	sbiw	r24, 0x01	; 1
  50:	d9 f7       	brne	.-10     	; 0x48 <__SREG__+0x9>
  52:	c4 9a       	sbi	0x18, 4	; 24
  54:	80 e1       	ldi	r24, 0x10	; 16
  56:	97 e2       	ldi	r25, 0x27	; 39
  58:	28 ec       	ldi	r18, 0xC8	; 200
  5a:	30 e0       	ldi	r19, 0x00	; 0
  5c:	f9 01       	movw	r30, r18
  5e:	31 97       	sbiw	r30, 0x01	; 1
  60:	f1 f7       	brne	.-4      	; 0x5e <__SREG__+0x1f>
  62:	01 97       	sbiw	r24, 0x01	; 1
  64:	d9 f7       	brne	.-10     	; 0x5c <__SREG__+0x1d>
  66:	c3 98       	cbi	0x18, 3	; 24
  68:	80 e1       	ldi	r24, 0x10	; 16
  6a:	97 e2       	ldi	r25, 0x27	; 39
  6c:	28 ec       	ldi	r18, 0xC8	; 200
  6e:	30 e0       	ldi	r19, 0x00	; 0
  70:	f9 01       	movw	r30, r18
  72:	31 97       	sbiw	r30, 0x01	; 1
  74:	f1 f7       	brne	.-4      	; 0x72 <__SREG__+0x33>
  76:	01 97       	sbiw	r24, 0x01	; 1
  78:	d9 f7       	brne	.-10     	; 0x70 <__SREG__+0x31>
  7a:	c4 9a       	sbi	0x18, 4	; 24
  7c:	80 e1       	ldi	r24, 0x10	; 16
  7e:	97 e2       	ldi	r25, 0x27	; 39
  80:	28 ec       	ldi	r18, 0xC8	; 200
  82:	30 e0       	ldi	r19, 0x00	; 0
  84:	f9 01       	movw	r30, r18
  86:	31 97       	sbiw	r30, 0x01	; 1
  88:	f1 f7       	brne	.-4      	; 0x86 <__SREG__+0x47>
  8a:	01 97       	sbiw	r24, 0x01	; 1
  8c:	d9 f7       	brne	.-10     	; 0x84 <__SREG__+0x45>
  8e:	80 e0       	ldi	r24, 0x00	; 0
  90:	90 e0       	ldi	r25, 0x00	; 0
  92:	08 95       	ret

00000094 <_exit>:
  94:	f8 94       	cli

00000096 <__stop_program>:
  96:	ff cf       	rjmp	.-2      	; 0x96 <__stop_program>
